target datalayout = "e-m:e-p270:32:32-p271:32:32-p272:64:64-i64:64-i128:128-f80:128-n8:16:32:64-S128"
target triple = "x86_64-pc-linux-gnu"

%"class.cv::Mat" = type { i32, i32, i32, i32, ptr, ptr, ptr, ptr, ptr, ptr, %"struct.cv::MatSize", %"struct.cv::MatStep" }
%"struct.cv::MatSize" = type { ptr }
%"struct.cv::MatStep" = type { ptr, [2 x i64] }
%"class.cv::_OutputArray" = type { %"class.cv::_InputArray" }
%"class.cv::_InputArray" = type { i32, ptr, %"class.cv::Size_" }
%"class.cv::Size_" = type { i32, i32 }
%"class.cv::FileNodeIterator" = type { ptr, i64, i64, i64, i64, i64 }
%"class.cv::internal::VecReaderProxy.87" = type { ptr }

; Function Attrs: mustprogress nounwind uwtable
define linkonce_odr hidden void @_ZN2cv8internal14VecReaderProxyIiLi1EEC2EPNS_16FileNodeIteratorE(ptr noundef nonnull align 8 dereferenceable(8) %0, ptr noundef %1) unnamed_addr #6 comdat align 2 {
  %3 = alloca ptr, align 8
  %4 = alloca ptr, align 8
  store ptr %0, ptr %3, align 8, !tbaa !779
  store ptr %1, ptr %4, align 8, !tbaa !706
  %5 = load ptr, ptr %3, align 8
  %6 = getelementptr inbounds nuw %"class.cv::internal::VecReaderProxy.87", ptr %5, i32 0, i32 0
  %7 = load ptr, ptr %4, align 8, !tbaa !706
  store ptr %7, ptr %6, align 8, !tbaa !781
  ret void
}

; Function Attrs: inlinehint mustprogress nounwind uwtable
define linkonce_odr hidden void @_ZN2cv5Size_IiEC2Ev(ptr noundef nonnull align 4 dereferenceable(8) %0) unnamed_addr #7 comdat align 2 {
  %2 = alloca ptr, align 8
  store ptr %0, ptr %2, align 8, !tbaa !510
  %3 = load ptr, ptr %2, align 8
  %4 = getelementptr inbounds nuw %"class.cv::Size_", ptr %3, i32 0, i32 0
  store i32 0, ptr %4, align 4, !tbaa !512
  %5 = getelementptr inbounds nuw %"class.cv::Size_", ptr %3, i32 0, i32 1
  store i32 0, ptr %5, align 4, !tbaa !513
  ret void
}

; Function Attrs: inlinehint mustprogress uwtable
define internal noundef nonnull align 8 dereferenceable(48) ptr @_ZN2cvrsIiEERNS_16FileNodeIteratorES2_RSt6vectorIT_SaIS4_EE(ptr noundef nonnull align 8 dereferenceable(48) %0, ptr noundef nonnull align 8 dereferenceable(24) %1) #9 {
  %3 = alloca ptr, align 8
  %4 = alloca ptr, align 8
  %5 = alloca %"class.cv::internal::VecReaderProxy.87", align 8
  store ptr %0, ptr %3, align 8, !tbaa !706
  store ptr %1, ptr %4, align 8, !tbaa !92
  call void @llvm.lifetime.start.p0(i64 8, ptr %5) #3
  %6 = load ptr, ptr %3, align 8, !tbaa !706
  call void @_ZN2cv8internal14VecReaderProxyIiLi1EEC2EPNS_16FileNodeIteratorE(ptr noundef nonnull align 8 dereferenceable(8) %5, ptr noundef %6)
  %7 = load ptr, ptr %4, align 8, !tbaa !92
  call void @_ZNK2cv8internal14VecReaderProxyIiLi1EEclERSt6vectorIiSaIiEEm(ptr noundef nonnull align 8 dereferenceable(8) %5, ptr noundef nonnull align 8 dereferenceable(24) %7, i64 noundef 2147483647)
  %8 = load ptr, ptr %3, align 8, !tbaa !706
  call void @llvm.lifetime.end.p0(i64 8, ptr %5) #3
  ret ptr %8
}

; Function Attrs: inlinehint mustprogress nounwind uwtable
define linkonce_odr hidden void @_ZN2cv11_InputArray4initEiPKv(ptr noundef nonnull align 8 dereferenceable(24) %0, i32 noundef %1, ptr noundef %2) #7 comdat align 2 {
  %4 = alloca ptr, align 8
  %5 = alloca i32, align 4
  %6 = alloca ptr, align 8
  store ptr %0, ptr %4, align 8, !tbaa !260
  store i32 %1, ptr %5, align 4, !tbaa !28
  store ptr %2, ptr %6, align 8, !tbaa !508
  %7 = load ptr, ptr %4, align 8
  %8 = load i32, ptr %5, align 4, !tbaa !28
  %9 = getelementptr inbounds nuw %"class.cv::_InputArray", ptr %7, i32 0, i32 0
  store i32 %8, ptr %9, align 8, !tbaa !509
  %10 = load ptr, ptr %6, align 8, !tbaa !508
  %11 = getelementptr inbounds nuw %"class.cv::_InputArray", ptr %7, i32 0, i32 1
  store ptr %10, ptr %11, align 8, !tbaa !347
  ret void
}

; Function Attrs: inlinehint mustprogress uwtable
define linkonce_odr hidden void @_ZN2cv11_InputArrayC2Ev(ptr noundef nonnull align 8 dereferenceable(24) %0) unnamed_addr #9 comdat align 2 {
  %2 = alloca ptr, align 8
  store ptr %0, ptr %2, align 8, !tbaa !260
  %3 = load ptr, ptr %2, align 8
  %4 = getelementptr inbounds nuw %"class.cv::_InputArray", ptr %3, i32 0, i32 2
  call void @_ZN2cv5Size_IiEC2Ev(ptr noundef nonnull align 4 dereferenceable(8) %4)
  call void @_ZN2cv11_InputArray4initEiPKv(ptr noundef nonnull align 8 dereferenceable(24) %3, i32 noundef 0, ptr noundef null)
  ret void
}

; Function Attrs: inlinehint mustprogress uwtable
define internal void @_ZN2cvrsIiEEvRKNS_8FileNodeERSt6vectorIT_SaIS5_EE(ptr noundef nonnull align 8 dereferenceable(24) %0, ptr noundef nonnull align 8 dereferenceable(24) %1) #9 {
  %3 = alloca ptr, align 8
  %4 = alloca ptr, align 8
  %5 = alloca %"class.cv::FileNodeIterator", align 8
  store ptr %0, ptr %3, align 8, !tbaa !371
  store ptr %1, ptr %4, align 8, !tbaa !92
  call void @llvm.lifetime.start.p0(i64 48, ptr %5) #3
  %6 = load ptr, ptr %3, align 8, !tbaa !371
  call void @_ZNK2cv8FileNode5beginEv(ptr dead_on_unwind writable sret(%"class.cv::FileNodeIterator") align 8 %5, ptr noundef nonnull align 8 dereferenceable(24) %6)
  %7 = load ptr, ptr %4, align 8, !tbaa !92
  %8 = call noundef nonnull align 8 dereferenceable(48) ptr @_ZN2cvrsIiEERNS_16FileNodeIteratorES2_RSt6vectorIT_SaIS4_EE(ptr noundef nonnull align 8 dereferenceable(48) %5, ptr noundef nonnull align 8 dereferenceable(24) %7)
  call void @llvm.lifetime.end.p0(i64 48, ptr %5) #3
  ret void
}

; Function Attrs: inlinehint mustprogress nounwind uwtable
define linkonce_odr hidden void @_ZN2cv11_InputArrayD2Ev(ptr noundef nonnull align 8 dereferenceable(24) %0) unnamed_addr #7 comdat align 2 {
  %2 = alloca ptr, align 8
  store ptr %0, ptr %2, align 8, !tbaa !260
  ret void
}

; Function Attrs: inlinehint mustprogress uwtable
define linkonce_odr hidden void @_ZN2cv12_OutputArrayC2IiEERSt6vectorIT_SaIS3_EE(ptr noundef nonnull align 8 dereferenceable(24) %0, ptr noundef nonnull align 8 dereferenceable(24) %1) unnamed_addr #9 comdat align 2 {
  %3 = alloca ptr, align 8
  %4 = alloca ptr, align 8
  store ptr %0, ptr %3, align 8, !tbaa !101
  store ptr %1, ptr %4, align 8, !tbaa !92
  %5 = load ptr, ptr %3, align 8
  call void @_ZN2cv11_InputArrayC2Ev(ptr noundef nonnull align 8 dereferenceable(24) %5)
  %6 = load ptr, ptr %4, align 8, !tbaa !92
  call void @_ZN2cv11_InputArray4initEiPKv(ptr noundef nonnull align 8 dereferenceable(24) %5, i32 noundef -2113732604, ptr noundef %6)
  ret void
}

; Function Attrs: inlinehint mustprogress uwtable
define internal void @_ZN2cvrsINS_3MatEEEvRKNS_8FileNodeERT_(ptr noundef nonnull align 8 dereferenceable(24) %0, ptr noundef nonnull align 8 dereferenceable(96) %1) #9 personality ptr @__gxx_personality_v0 {
  %3 = alloca ptr, align 8
  %4 = alloca ptr, align 8
  %5 = alloca %"class.cv::Mat", align 8
  %6 = alloca ptr, align 8
  %7 = alloca i32, align 4
  store ptr %0, ptr %3, align 8, !tbaa !371
  store ptr %1, ptr %4, align 8, !tbaa !32
  %8 = load ptr, ptr %3, align 8, !tbaa !371
  %9 = load ptr, ptr %4, align 8, !tbaa !32
  call void @llvm.lifetime.start.p0(i64 96, ptr %5) #3
  call void @_ZN2cv3MatC1Ev(ptr noundef nonnull align 8 dereferenceable(96) %5) #3
  invoke void @_ZN2cv4readERKNS_8FileNodeERNS_3MatERKS3_(ptr noundef nonnull align 8 dereferenceable(24) %8, ptr noundef nonnull align 8 dereferenceable(96) %9, ptr noundef nonnull align 8 dereferenceable(96) %5)
          to label %10 unwind label %11

10:                                               ; preds = %2
  call void @_ZN2cv3MatD1Ev(ptr noundef nonnull align 8 dereferenceable(96) %5) #3
  call void @llvm.lifetime.end.p0(i64 96, ptr %5) #3
  ret void

11:                                               ; preds = %2
  %12 = landingpad { ptr, i32 }
          cleanup
  %13 = extractvalue { ptr, i32 } %12, 0
  store ptr %13, ptr %6, align 8
  %14 = extractvalue { ptr, i32 } %12, 1
  store i32 %14, ptr %7, align 4
  call void @_ZN2cv3MatD1Ev(ptr noundef nonnull align 8 dereferenceable(96) %5) #3
  call void @llvm.lifetime.end.p0(i64 96, ptr %5) #3
  br label %15

15:                                               ; preds = %11
  %16 = load ptr, ptr %6, align 8
  %17 = load i32, ptr %7, align 4
  %18 = insertvalue { ptr, i32 } poison, ptr %16, 0
  %19 = insertvalue { ptr, i32 } %18, i32 %17, 1
  resume { ptr, i32 } %19
}

; Function Attrs: inlinehint mustprogress uwtable
define internal void @_ZN2cv2mlL15readVectorOrMatIiEEvRKNS_8FileNodeERSt6vectorIT_SaIS6_EE(ptr noundef nonnull align 8 dereferenceable(24) %0, ptr noundef nonnull align 8 dereferenceable(24) %1) #9 personality ptr @__gxx_personality_v0 {
  %3 = alloca ptr, align 8
  %4 = alloca ptr, align 8
  %5 = alloca %"class.cv::Mat", align 8
  %6 = alloca ptr, align 8
  %7 = alloca i32, align 4
  %8 = alloca %"class.cv::_OutputArray", align 8
  store ptr %0, ptr %3, align 8, !tbaa !371
  store ptr %1, ptr %4, align 8, !tbaa !92
  %9 = load ptr, ptr %3, align 8, !tbaa !371
  %10 = call noundef i32 @_ZNK2cv8FileNode4typeEv(ptr noundef nonnull align 8 dereferenceable(24) %9)
  %11 = icmp eq i32 %10, 5
  br i1 %11, label %12, label %32

12:                                               ; preds = %2
  call void @llvm.lifetime.start.p0(i64 96, ptr %5) #3
  call void @_ZN2cv3MatC1Ev(ptr noundef nonnull align 8 dereferenceable(96) %5) #3
  %13 = load ptr, ptr %3, align 8, !tbaa !371
  invoke void @_ZN2cvrsINS_3MatEEEvRKNS_8FileNodeERT_(ptr noundef nonnull align 8 dereferenceable(24) %13, ptr noundef nonnull align 8 dereferenceable(96) %5)
          to label %14 unwind label %18

14:                                               ; preds = %12
  call void @llvm.lifetime.start.p0(i64 24, ptr %8) #3
  %15 = load ptr, ptr %4, align 8, !tbaa !92
  invoke void @_ZN2cv12_OutputArrayC2IiEERSt6vectorIT_SaIS3_EE(ptr noundef nonnull align 8 dereferenceable(24) %8, ptr noundef nonnull align 8 dereferenceable(24) %15)
          to label %16 unwind label %22

16:                                               ; preds = %14
  invoke void @_ZNK2cv3Mat6copyToERKNS_12_OutputArrayE(ptr noundef nonnull align 8 dereferenceable(96) %5, ptr noundef nonnull align 8 dereferenceable(24) %8)
          to label %17 unwind label %26

17:                                               ; preds = %16
  call void @_ZN2cv11_InputArrayD2Ev(ptr noundef nonnull align 8 dereferenceable(24) %8) #3
  call void @llvm.lifetime.end.p0(i64 24, ptr %8) #3
  call void @_ZN2cv3MatD1Ev(ptr noundef nonnull align 8 dereferenceable(96) %5) #3
  call void @llvm.lifetime.end.p0(i64 96, ptr %5) #3
  br label %40

18:                                               ; preds = %12
  %19 = landingpad { ptr, i32 }
          cleanup
  %20 = extractvalue { ptr, i32 } %19, 0
  store ptr %20, ptr %6, align 8
  %21 = extractvalue { ptr, i32 } %19, 1
  store i32 %21, ptr %7, align 4
  br label %31

22:                                               ; preds = %14
  %23 = landingpad { ptr, i32 }
          cleanup
  %24 = extractvalue { ptr, i32 } %23, 0
  store ptr %24, ptr %6, align 8
  %25 = extractvalue { ptr, i32 } %23, 1
  store i32 %25, ptr %7, align 4
  br label %30

26:                                               ; preds = %16
  %27 = landingpad { ptr, i32 }
          cleanup
  %28 = extractvalue { ptr, i32 } %27, 0
  store ptr %28, ptr %6, align 8
  %29 = extractvalue { ptr, i32 } %27, 1
  store i32 %29, ptr %7, align 4
  call void @_ZN2cv11_InputArrayD2Ev(ptr noundef nonnull align 8 dereferenceable(24) %8) #3
  br label %30

30:                                               ; preds = %26, %22
  call void @llvm.lifetime.end.p0(i64 24, ptr %8) #3
  br label %31

31:                                               ; preds = %30, %18
  call void @_ZN2cv3MatD1Ev(ptr noundef nonnull align 8 dereferenceable(96) %5) #3
  call void @llvm.lifetime.end.p0(i64 96, ptr %5) #3
  br label %41

32:                                               ; preds = %2
  %33 = load ptr, ptr %3, align 8, !tbaa !371
  %34 = call noundef i32 @_ZNK2cv8FileNode4typeEv(ptr noundef nonnull align 8 dereferenceable(24) %33)
  %35 = icmp eq i32 %34, 4
  br i1 %35, label %36, label %39

36:                                               ; preds = %32
  %37 = load ptr, ptr %3, align 8, !tbaa !371
  %38 = load ptr, ptr %4, align 8, !tbaa !92
  call void @_ZN2cvrsIiEEvRKNS_8FileNodeERSt6vectorIT_SaIS5_EE(ptr noundef nonnull align 8 dereferenceable(24) %37, ptr noundef nonnull align 8 dereferenceable(24) %38)
  br label %39

39:                                               ; preds = %36, %32
  br label %40

40:                                               ; preds = %39, %17
  ret void

41:                                               ; preds = %31
  %42 = load ptr, ptr %6, align 8
  %43 = load i32, ptr %7, align 4
  %44 = insertvalue { ptr, i32 } poison, ptr %42, 0
  %45 = insertvalue { ptr, i32 } %44, i32 %43, 1
  resume { ptr, i32 } %45
}