; Function Attrs: inlinehint mustprogress uwtable
define internal fastcc void @_ZN2cv2mlL15readVectorOrMatIiEEvRKNS_8FileNodeERSt6vectorIT_SaIS6_EE(ptr noundef nonnull align 8 dereferenceable(24) %0, ptr noundef nonnull align 8 dereferenceable(24) %1) unnamed_addr #16 personality ptr @__gxx_personality_v0 {
  %3 = alloca %"class.cv::internal::VecReaderProxy.87", align 8
  %4 = alloca %"class.cv::FileNodeIterator", align 8
  %5 = alloca %"class.cv::Mat", align 8
  %6 = alloca %"class.cv::Mat", align 8
  %7 = alloca %"class.cv::_OutputArray", align 8
  %8 = tail call noundef i32 @_ZNK2cv8FileNode4typeEv(ptr noundef nonnull align 8 dereferenceable(24) %0)
  %9 = icmp eq i32 %8, 5
  br i1 %9, label %10, label %19

10:                                               ; preds = %2
  call void @llvm.lifetime.start.p0(i64 96, ptr nonnull %6) #26
  call void @_ZN2cv3MatC1Ev(ptr noundef nonnull align 8 dereferenceable(96) %6) #26
  call void @llvm.lifetime.start.p0(i64 96, ptr nonnull %5) #26
  call void @_ZN2cv3MatC1Ev(ptr noundef nonnull align 8 dereferenceable(96) %5) #26
  invoke void @_ZN2cv4readERKNS_8FileNodeERNS_3MatERKS3_(ptr noundef nonnull align 8 dereferenceable(24) %0, ptr noundef nonnull align 8 dereferenceable(96) %6, ptr noundef nonnull align 8 dereferenceable(96) %5)
          to label %13 unwind label %11

11:                                               ; preds = %10
  %12 = landingpad { ptr, i32 }
          cleanup
  call void @_ZN2cv3MatD1Ev(ptr noundef nonnull align 8 dereferenceable(96) %5) #26
  call void @llvm.lifetime.end.p0(i64 96, ptr nonnull %5) #26
  br label %.body

13:                                               ; preds = %10
  call void @_ZN2cv3MatD1Ev(ptr noundef nonnull align 8 dereferenceable(96) %5) #26
  call void @llvm.lifetime.end.p0(i64 96, ptr nonnull %5) #26
  call void @llvm.lifetime.start.p0(i64 24, ptr nonnull %7) #26
  %14 = getelementptr inbounds nuw i8, ptr %7, i64 8
  %15 = getelementptr inbounds nuw i8, ptr %7, i64 16
  store i64 0, ptr %15, align 8
  store i32 -2113732604, ptr %7, align 8, !tbaa !56
  store ptr %1, ptr %14, align 8, !tbaa !59
  invoke void @_ZNK2cv3Mat6copyToERKNS_12_OutputArrayE(ptr noundef nonnull align 8 dereferenceable(96) %6, ptr noundef nonnull align 8 dereferenceable(24) %7)
          to label %16 unwind label %17

16:                                               ; preds = %13
  call void @llvm.lifetime.end.p0(i64 24, ptr nonnull %7) #26
  call void @_ZN2cv3MatD1Ev(ptr noundef nonnull align 8 dereferenceable(96) %6) #26
  call void @llvm.lifetime.end.p0(i64 96, ptr nonnull %6) #26
  br label %23

17:                                               ; preds = %13
  %18 = landingpad { ptr, i32 }
          cleanup
  call void @llvm.lifetime.end.p0(i64 24, ptr nonnull %7) #26
  br label %.body

.body:                                            ; preds = %11, %17
  %.pn.pn = phi { ptr, i32 } [ %18, %17 ], [ %12, %11 ]
  call void @_ZN2cv3MatD1Ev(ptr noundef nonnull align 8 dereferenceable(96) %6) #26
  call void @llvm.lifetime.end.p0(i64 96, ptr nonnull %6) #26
  resume { ptr, i32 } %.pn.pn

19:                                               ; preds = %2
  %20 = tail call noundef i32 @_ZNK2cv8FileNode4typeEv(ptr noundef nonnull align 8 dereferenceable(24) %0)
  %21 = icmp eq i32 %20, 4
  br i1 %21, label %22, label %23

22:                                               ; preds = %19
  call void @llvm.lifetime.start.p0(i64 48, ptr nonnull %4) #26
  call void @_ZNK2cv8FileNode5beginEv(ptr dead_on_unwind nonnull writable sret(%"class.cv::FileNodeIterator") align 8 %4, ptr noundef nonnull align 8 dereferenceable(24) %0)
  call void @llvm.lifetime.start.p0(i64 8, ptr nonnull %3) #26
  store ptr %4, ptr %3, align 8, !tbaa !380
  call void @_ZNK2cv8internal14VecReaderProxyIiLi1EEclERSt6vectorIiSaIiEEm(ptr noundef nonnull align 8 dereferenceable(8) %3, ptr noundef nonnull align 8 dereferenceable(24) %1, i64 noundef 2147483647)
  call void @llvm.lifetime.end.p0(i64 8, ptr nonnull %3) #26
  call void @llvm.lifetime.end.p0(i64 48, ptr nonnull %4) #26
  br label %23

23:                                               ; preds = %19, %22, %16
  ret void
}